target datalayout = "e-m:e-p270:32:32-p271:32:32-p272:64:64-i64:64-i128:128-f80:128-n8:16:32:64-S128"
target triple = "x86_64-pc-linux-gnu"

%struct.__sigset_t = type { [16 x i64] }
%struct.ArchiveModuleCallbacks = type { ptr, ptr, ptr, ptr }
%struct.__jmp_buf_tag = type { [8 x i64], i32, %struct.__sigset_t }

@archive_context = internal global ptr null, align 8
@ArchiveCallbacks = internal global ptr null, align 8
@archive_module_state = internal global ptr null, align 8
@.str.9 = private unnamed_addr constant [10 x i8] c"pg_wal/%s\00", align 1
@.str.18 = private unnamed_addr constant [13 x i8] c"archiving %s\00", align 1
@error_context_stack = external global ptr, align 8
@InterruptHoldoffCount = external global i32, align 4
@PG_exception_stack = external global ptr, align 8
@.str.19 = private unnamed_addr constant [12 x i8] c"last was %s\00", align 1
@.str.20 = private unnamed_addr constant [13 x i8] c"failed on %s\00", align 1
@CurrentMemoryContext = external global ptr, align 8
@my_wait_event_info = external global ptr, align 8

; Function Attrs: inlinehint nounwind uwtable
define internal void @pgstat_report_wait_end() #4 {
  %1 = load ptr, ptr @my_wait_event_info, align 8
  store volatile i32 0, ptr %1, align 4
  ret void
}

; Function Attrs: inlinehint nounwind uwtable
define internal ptr @MemoryContextSwitchTo(ptr noundef %0) #4 {
  %2 = alloca ptr, align 8
  %3 = alloca ptr, align 8
  store ptr %0, ptr %2, align 8
  call void @llvm.lifetime.start.p0(i64 8, ptr %3) #14
  %4 = load ptr, ptr @CurrentMemoryContext, align 8
  store ptr %4, ptr %3, align 8
  %5 = load ptr, ptr %2, align 8
  store ptr %5, ptr @CurrentMemoryContext, align 8
  %6 = load ptr, ptr %3, align 8
  call void @llvm.lifetime.end.p0(i64 8, ptr %3) #14
  ret ptr %6
}

; Function Attrs: inlinehint nounwind uwtable
define internal void @set_ps_display(ptr noundef %0) #4 {
  %2 = alloca ptr, align 8
  store ptr %0, ptr %2, align 8
  %3 = load ptr, ptr %2, align 8
  %4 = load ptr, ptr %2, align 8
  %5 = call i64 @strlen(ptr noundef %4) #16
  call void @set_ps_display_with_len(ptr noundef %3, i64 noundef %5)
  ret void
}

; Function Attrs: nounwind uwtable
define internal zeroext i1 @pgarch_archiveXlog(ptr noundef %0) #0 {
  %2 = alloca ptr, align 8
  %3 = alloca [1 x %struct.__jmp_buf_tag], align 16
  %4 = alloca ptr, align 8
  %5 = alloca [1024 x i8], align 16
  %6 = alloca [80 x i8], align 16
  %7 = alloca i8, align 1
  store ptr %0, ptr %2, align 8
  call void @llvm.lifetime.start.p0(i64 200, ptr %3) #14
  call void @llvm.lifetime.start.p0(i64 8, ptr %4) #14
  call void @llvm.lifetime.start.p0(i64 1024, ptr %5) #14
  call void @llvm.lifetime.start.p0(i64 80, ptr %6) #14
  call void @llvm.lifetime.start.p0(i64 1, ptr %7) #14
  %8 = getelementptr inbounds [1024 x i8], ptr %5, i64 0, i64 0
  %9 = load ptr, ptr %2, align 8
  %10 = call i32 (ptr, i64, ptr, ...) @pg_snprintf(ptr noundef %8, i64 noundef 1024, ptr noundef @.str.9, ptr noundef %9)
  %11 = getelementptr inbounds [80 x i8], ptr %6, i64 0, i64 0
  %12 = load ptr, ptr %2, align 8
  %13 = call i32 (ptr, i64, ptr, ...) @pg_snprintf(ptr noundef %11, i64 noundef 80, ptr noundef @.str.18, ptr noundef %12)
  %14 = getelementptr inbounds [80 x i8], ptr %6, i64 0, i64 0
  call void @set_ps_display(ptr noundef %14)
  %15 = load ptr, ptr @archive_context, align 8
  %16 = call ptr @MemoryContextSwitchTo(ptr noundef %15)
  store ptr %16, ptr %4, align 8
  %17 = getelementptr inbounds [1 x %struct.__jmp_buf_tag], ptr %3, i64 0, i64 0
  %18 = call i32 @__sigsetjmp(ptr noundef %17, i32 noundef 1) #19
  %19 = icmp ne i32 %18, 0
  br i1 %19, label %20, label %32

20:                                               ; preds = %1
  store ptr null, ptr @error_context_stack, align 8
  %21 = load volatile i32, ptr @InterruptHoldoffCount, align 4
  %22 = add i32 %21, 1
  store volatile i32 %22, ptr @InterruptHoldoffCount, align 4
  call void @EmitErrorReport()
  call void @disable_all_timeouts(i1 noundef zeroext false)
  call void @LWLockReleaseAll()
  %23 = call zeroext i1 @ConditionVariableCancelSleep()
  call void @pgstat_report_wait_end()
  call void @ReleaseAuxProcessResources(i1 noundef zeroext false)
  call void @AtEOXact_Files(i1 noundef zeroext false)
  call void @AtEOXact_HashTables(i1 noundef zeroext false)
  %24 = load ptr, ptr %4, align 8
  %25 = call ptr @MemoryContextSwitchTo(ptr noundef %24)
  call void @FlushErrorState()
  %26 = load ptr, ptr @archive_context, align 8
  call void @MemoryContextReset(ptr noundef %26)
  store ptr null, ptr @PG_exception_stack, align 8
  br label %27

27:                                               ; preds = %20
  %28 = load volatile i32, ptr @InterruptHoldoffCount, align 4
  %29 = add i32 %28, -1
  store volatile i32 %29, ptr @InterruptHoldoffCount, align 4
  br label %30

30:                                               ; preds = %27
  br label %31

31:                                               ; preds = %30
  store i8 0, ptr %7, align 1
  br label %44

32:                                               ; preds = %1
  store ptr %3, ptr @PG_exception_stack, align 8
  %33 = load ptr, ptr @ArchiveCallbacks, align 8
  %34 = getelementptr inbounds nuw %struct.ArchiveModuleCallbacks, ptr %33, i32 0, i32 2
  %35 = load ptr, ptr %34, align 8
  %36 = load ptr, ptr @archive_module_state, align 8
  %37 = load ptr, ptr %2, align 8
  %38 = getelementptr inbounds [1024 x i8], ptr %5, i64 0, i64 0
  %39 = call zeroext i1 %35(ptr noundef %36, ptr noundef %37, ptr noundef %38)
  %40 = zext i1 %39 to i8
  store i8 %40, ptr %7, align 1
  store ptr null, ptr @PG_exception_stack, align 8
  %41 = load ptr, ptr %4, align 8
  %42 = call ptr @MemoryContextSwitchTo(ptr noundef %41)
  %43 = load ptr, ptr @archive_context, align 8
  call void @MemoryContextReset(ptr noundef %43)
  br label %44

44:                                               ; preds = %32, %31
  %45 = load i8, ptr %7, align 1, !range !4, !noundef !5
  %46 = trunc i8 %45 to i1
  br i1 %46, label %47, label %51

47:                                               ; preds = %44
  %48 = getelementptr inbounds [80 x i8], ptr %6, i64 0, i64 0
  %49 = load ptr, ptr %2, align 8
  %50 = call i32 (ptr, i64, ptr, ...) @pg_snprintf(ptr noundef %48, i64 noundef 80, ptr noundef @.str.19, ptr noundef %49)
  br label %55

51:                                               ; preds = %44
  %52 = getelementptr inbounds [80 x i8], ptr %6, i64 0, i64 0
  %53 = load ptr, ptr %2, align 8
  %54 = call i32 (ptr, i64, ptr, ...) @pg_snprintf(ptr noundef %52, i64 noundef 80, ptr noundef @.str.20, ptr noundef %53)
  br label %55

55:                                               ; preds = %51, %47
  %56 = getelementptr inbounds [80 x i8], ptr %6, i64 0, i64 0
  call void @set_ps_display(ptr noundef %56)
  %57 = load i8, ptr %7, align 1, !range !4, !noundef !5
  %58 = trunc i8 %57 to i1
  call void @llvm.lifetime.end.p0(i64 1, ptr %7) #14
  call void @llvm.lifetime.end.p0(i64 80, ptr %6) #14
  call void @llvm.lifetime.end.p0(i64 1024, ptr %5) #14
  call void @llvm.lifetime.end.p0(i64 8, ptr %4) #14
  call void @llvm.lifetime.end.p0(i64 200, ptr %3) #14
  ret i1 %58
}