; Function Attrs: nounwind uwtable
define internal fastcc noundef zeroext i1 @pgarch_archiveXlog(ptr noundef nonnull %0) unnamed_addr #0 {
  %2 = alloca [1 x %struct.__jmp_buf_tag], align 16
  %3 = alloca [1024 x i8], align 16
  %4 = alloca [80 x i8], align 16
  call void @llvm.lifetime.start.p0(i64 200, ptr nonnull %2) #19
  call void @llvm.lifetime.start.p0(i64 1024, ptr nonnull %3) #19
  call void @llvm.lifetime.start.p0(i64 80, ptr nonnull %4) #19
  %5 = call i32 (ptr, i64, ptr, ...) @pg_snprintf(ptr noundef nonnull %3, i64 noundef 1024, ptr noundef nonnull @.str.9, ptr noundef nonnull %0) #19
  %6 = call i32 (ptr, i64, ptr, ...) @pg_snprintf(ptr noundef nonnull %4, i64 noundef 80, ptr noundef nonnull @.str.18, ptr noundef nonnull %0) #19
  %7 = call i64 @strlen(ptr noundef nonnull dereferenceable(1) %4) #21
  call void @set_ps_display_with_len(ptr noundef nonnull %4, i64 noundef %7) #19
  %8 = load ptr, ptr @archive_context, align 8
  %9 = load ptr, ptr @CurrentMemoryContext, align 8
  store ptr %8, ptr @CurrentMemoryContext, align 8
  %10 = call i32 @__sigsetjmp(ptr noundef nonnull %2, i32 noundef 1) #24
  %.not = icmp eq i32 %10, 0
  br i1 %.not, label %18, label %.thread

.thread:                                          ; preds = %1
  store ptr null, ptr @error_context_stack, align 8
  %11 = load volatile i32, ptr @InterruptHoldoffCount, align 4
  %12 = add i32 %11, 1
  store volatile i32 %12, ptr @InterruptHoldoffCount, align 4
  call void @EmitErrorReport() #19
  call void @disable_all_timeouts(i1 noundef zeroext false) #19
  call void @LWLockReleaseAll() #19
  %13 = call zeroext i1 @ConditionVariableCancelSleep() #19
  %14 = load ptr, ptr @my_wait_event_info, align 8
  store volatile i32 0, ptr %14, align 4
  call void @ReleaseAuxProcessResources(i1 noundef zeroext false) #19
  call void @AtEOXact_Files(i1 noundef zeroext false) #19
  call void @AtEOXact_HashTables(i1 noundef zeroext false) #19
  store ptr %9, ptr @CurrentMemoryContext, align 8
  call void @FlushErrorState() #19
  %15 = load ptr, ptr @archive_context, align 8
  call void @MemoryContextReset(ptr noundef %15) #19
  store ptr null, ptr @PG_exception_stack, align 8
  %16 = load volatile i32, ptr @InterruptHoldoffCount, align 4
  %17 = add i32 %16, -1
  store volatile i32 %17, ptr @InterruptHoldoffCount, align 4
  br label %25

18:                                               ; preds = %1
  store ptr %2, ptr @PG_exception_stack, align 8
  %19 = load ptr, ptr @ArchiveCallbacks, align 8
  %20 = getelementptr inbounds nuw i8, ptr %19, i64 16
  %21 = load ptr, ptr %20, align 8
  %22 = load ptr, ptr @archive_module_state, align 8
  %23 = call zeroext i1 %21(ptr noundef %22, ptr noundef nonnull %0, ptr noundef nonnull %3) #19
  store ptr null, ptr @PG_exception_stack, align 8
  store ptr %9, ptr @CurrentMemoryContext, align 8
  %24 = load ptr, ptr @archive_context, align 8
  call void @MemoryContextReset(ptr noundef %24) #19
  br i1 %23, label %26, label %25

25:                                               ; preds = %.thread, %18
  br label %26

26:                                               ; preds = %18, %25
  %.str.20.sink = phi ptr [ @.str.20, %25 ], [ @.str.19, %18 ]
  %.09 = phi i1 [ false, %25 ], [ true, %18 ]
  %27 = call i32 (ptr, i64, ptr, ...) @pg_snprintf(ptr noundef nonnull %4, i64 noundef 80, ptr noundef nonnull %.str.20.sink, ptr noundef nonnull %0) #19
  %28 = call i64 @strlen(ptr noundef nonnull dereferenceable(1) %4) #21
  call void @set_ps_display_with_len(ptr noundef nonnull %4, i64 noundef %28) #19
  call void @llvm.lifetime.end.p0(i64 80, ptr nonnull %4) #19
  call void @llvm.lifetime.end.p0(i64 1024, ptr nonnull %3) #19
  call void @llvm.lifetime.end.p0(i64 200, ptr nonnull %2) #19
  ret i1 %.09
}